; Function Attrs: mustprogress uwtable
define void @_ZNK10open_spiel9coin_game9CoinState10PrintBoardERSo(ptr nocapture noundef nonnull readonly align 8 dereferenceable(288) %0, ptr noundef nonnull align 8 dereferenceable(8) %1) local_unnamed_addr #3 align 2 {
  %3 = tail call noundef nonnull align 8 dereferenceable(8) ptr @_ZStlsISt11char_traitsIcEERSt13basic_ostreamIcT_ES5_PKc(ptr noundef nonnull align 8 dereferenceable(8) %1, ptr noundef nonnull @.str.45)
  %4 = getelementptr inbounds nuw i8, ptr %0, i64 64
  %5 = load ptr, ptr %4, align 8
  %6 = getelementptr inbounds nuw i8, ptr %5, i64 288
  %7 = load i32, ptr %6, align 8
  %8 = icmp sgt i32 %7, 0
  br i1 %8, label %.lr.ph.i, label %_ZNK10open_spiel9coin_game9CoinState22PrintBoardDelimiterRowERSo.exit

.lr.ph.i:                                         ; preds = %2, %.lr.ph.i
  %.05.i = phi i32 [ %10, %.lr.ph.i ], [ 0, %2 ]
  %9 = tail call noundef nonnull align 8 dereferenceable(8) ptr @_ZStlsISt11char_traitsIcEERSt13basic_ostreamIcT_ES5_PKc(ptr noundef nonnull align 8 dereferenceable(8) %1, ptr noundef nonnull @.str.46)
  %10 = add nuw nsw i32 %.05.i, 1
  %11 = load ptr, ptr %4, align 8
  %12 = getelementptr inbounds nuw i8, ptr %11, i64 288
  %13 = load i32, ptr %12, align 8
  %14 = icmp slt i32 %10, %13
  br i1 %14, label %.lr.ph.i, label %_ZNK10open_spiel9coin_game9CoinState22PrintBoardDelimiterRowERSo.exit, !llvm.loop !21

_ZNK10open_spiel9coin_game9CoinState22PrintBoardDelimiterRowERSo.exit: ; preds = %.lr.ph.i, %2
  %15 = tail call noundef nonnull align 8 dereferenceable(8) ptr @_ZStlsISt11char_traitsIcEERSt13basic_ostreamIcT_ES5_PKc(ptr noundef nonnull align 8 dereferenceable(8) %1, ptr noundef nonnull @.str.47)
  %16 = load ptr, ptr %4, align 8
  %17 = getelementptr inbounds nuw i8, ptr %16, i64 284
  %18 = load i32, ptr %17, align 4
  %19 = icmp sgt i32 %18, 0
  br i1 %19, label %.lr.ph15, label %._crit_edge16

.lr.ph15:                                         ; preds = %_ZNK10open_spiel9coin_game9CoinState22PrintBoardDelimiterRowERSo.exit
  %20 = getelementptr inbounds nuw i8, ptr %0, i64 240
  br label %21

21:                                               ; preds = %.lr.ph15, %._crit_edge
  %storemerge14 = phi i32 [ 0, %.lr.ph15 ], [ %41, %._crit_edge ]
  %22 = tail call noundef nonnull align 8 dereferenceable(8) ptr @_ZStlsISt11char_traitsIcEERSt13basic_ostreamIcT_ES5_PKc(ptr noundef nonnull align 8 dereferenceable(8) %1, ptr noundef nonnull @.str.48)
  %23 = load ptr, ptr %4, align 8
  %24 = getelementptr inbounds nuw i8, ptr %23, i64 288
  %25 = load i32, ptr %24, align 8
  %26 = icmp sgt i32 %25, 0
  br i1 %26, label %.lr.ph, label %._crit_edge

.lr.ph:                                           ; preds = %21, %.lr.ph
  %27 = phi i32 [ %38, %.lr.ph ], [ %25, %21 ]
  %storemerge613 = phi i32 [ %35, %.lr.ph ], [ 0, %21 ]
  %28 = mul nsw i32 %27, %storemerge14
  %29 = add nsw i32 %28, %storemerge613
  %30 = sext i32 %29 to i64
  %31 = load ptr, ptr %20, align 8
  %32 = getelementptr inbounds i8, ptr %31, i64 %30
  %33 = load i8, ptr %32, align 1
  %34 = tail call noundef nonnull align 8 dereferenceable(8) ptr @_ZStlsISt11char_traitsIcEERSt13basic_ostreamIcT_ES5_c(ptr noundef nonnull align 8 dereferenceable(8) %1, i8 noundef signext %33)
  %35 = add nuw nsw i32 %storemerge613, 1
  %36 = load ptr, ptr %4, align 8
  %37 = getelementptr inbounds nuw i8, ptr %36, i64 288
  %38 = load i32, ptr %37, align 8
  %39 = icmp slt i32 %35, %38
  br i1 %39, label %.lr.ph, label %._crit_edge, !llvm.loop !22

._crit_edge:                                      ; preds = %.lr.ph, %21
  %40 = tail call noundef nonnull align 8 dereferenceable(8) ptr @_ZStlsISt11char_traitsIcEERSt13basic_ostreamIcT_ES5_PKc(ptr noundef nonnull align 8 dereferenceable(8) %1, ptr noundef nonnull @.str.49)
  %41 = add nuw nsw i32 %storemerge14, 1
  %42 = load ptr, ptr %4, align 8
  %43 = getelementptr inbounds nuw i8, ptr %42, i64 284
  %44 = load i32, ptr %43, align 4
  %45 = icmp slt i32 %41, %44
  br i1 %45, label %21, label %._crit_edge16, !llvm.loop !23

._crit_edge16:                                    ; preds = %._crit_edge, %_ZNK10open_spiel9coin_game9CoinState22PrintBoardDelimiterRowERSo.exit
  %46 = tail call noundef nonnull align 8 dereferenceable(8) ptr @_ZStlsISt11char_traitsIcEERSt13basic_ostreamIcT_ES5_PKc(ptr noundef nonnull align 8 dereferenceable(8) %1, ptr noundef nonnull @.str.45)
  %47 = load ptr, ptr %4, align 8
  %48 = getelementptr inbounds nuw i8, ptr %47, i64 288
  %49 = load i32, ptr %48, align 8
  %50 = icmp sgt i32 %49, 0
  br i1 %50, label %.lr.ph.i7, label %_ZNK10open_spiel9coin_game9CoinState22PrintBoardDelimiterRowERSo.exit9

.lr.ph.i7:                                        ; preds = %._crit_edge16, %.lr.ph.i7
  %.05.i8 = phi i32 [ %52, %.lr.ph.i7 ], [ 0, %._crit_edge16 ]
  %51 = tail call noundef nonnull align 8 dereferenceable(8) ptr @_ZStlsISt11char_traitsIcEERSt13basic_ostreamIcT_ES5_PKc(ptr noundef nonnull align 8 dereferenceable(8) %1, ptr noundef nonnull @.str.46)
  %52 = add nuw nsw i32 %.05.i8, 1
  %53 = load ptr, ptr %4, align 8
  %54 = getelementptr inbounds nuw i8, ptr %53, i64 288
  %55 = load i32, ptr %54, align 8
  %56 = icmp slt i32 %52, %55
  br i1 %56, label %.lr.ph.i7, label %_ZNK10open_spiel9coin_game9CoinState22PrintBoardDelimiterRowERSo.exit9, !llvm.loop !21

_ZNK10open_spiel9coin_game9CoinState22PrintBoardDelimiterRowERSo.exit9: ; preds = %.lr.ph.i7, %._crit_edge16
  %57 = tail call noundef nonnull align 8 dereferenceable(8) ptr @_ZStlsISt11char_traitsIcEERSt13basic_ostreamIcT_ES5_PKc(ptr noundef nonnull align 8 dereferenceable(8) %1, ptr noundef nonnull @.str.47)
  ret void
}